; ModuleID = 'source-C-CXX/25/153.cpp'
source_filename = "source-C-CXX/25/153.cpp"
target datalayout = "e-m:e-p270:32:32-p271:32:32-p272:64:64-i64:64-f80:128-n8:16:32:64-S128"
target triple = "x86_64-pc-linux-gnu"

%"class.std::ios_base::Init" = type { i8 }
%"class.std::basic_istream" = type { i32 (...)**, i64, %"class.std::basic_ios" }
%"class.std::basic_ios" = type { %"class.std::ios_base", %"class.std::basic_ostream"*, i8, i8, %"class.std::basic_streambuf"*, %"class.std::ctype"*, %"class.std::num_put"*, %"class.std::num_get"* }
%"class.std::ios_base" = type { i32 (...)**, i64, i64, i32, i32, i32, %"struct.std::ios_base::_Callback_list"*, %"struct.std::ios_base::_Words", [8 x %"struct.std::ios_base::_Words"], i32, %"struct.std::ios_base::_Words"*, %"class.std::locale" }
%"struct.std::ios_base::_Callback_list" = type { %"struct.std::ios_base::_Callback_list"*, void (i32, %"class.std::ios_base"*, i32)*, i32, i32 }
%"struct.std::ios_base::_Words" = type { i8*, i64 }
%"class.std::locale" = type { %"class.std::locale::_Impl"* }
%"class.std::locale::_Impl" = type { i32, %"class.std::locale::facet"**, i64, %"class.std::locale::facet"**, i8** }
%"class.std::locale::facet" = type <{ i32 (...)**, i32, [4 x i8] }>
%"class.std::basic_ostream" = type { i32 (...)**, %"class.std::basic_ios" }
%"class.std::basic_streambuf" = type { i32 (...)**, i8*, i8*, i8*, i8*, i8*, i8*, %"class.std::locale" }
%"class.std::ctype" = type <{ %"class.std::locale::facet.base", [4 x i8], %struct.__locale_struct*, i8, [7 x i8], i32*, i32*, i16*, i8, [256 x i8], [256 x i8], i8, [6 x i8] }>
%"class.std::locale::facet.base" = type <{ i32 (...)**, i32 }>
%struct.__locale_struct = type { [13 x %struct.__locale_data*], i16*, i32*, i32*, [13 x i8*] }
%struct.__locale_data = type opaque
%"class.std::num_put" = type { %"class.std::locale::facet.base", [4 x i8] }
%"class.std::num_get" = type { %"class.std::locale::facet.base", [4 x i8] }

@_ZStL8__ioinit = internal global %"class.std::ios_base::Init" zeroinitializer, align 1
@__dso_handle = external hidden global i8
@_ZSt3cin = external global %"class.std::basic_istream", align 8
@_ZSt4cout = external global %"class.std::basic_ostream", align 8
@llvm.global_ctors = appending global [1 x { i32, void ()*, i8* }] [{ i32, void ()*, i8* } { i32 65535, void ()* @_GLOBAL__sub_I_153.cpp, i8* null }]

declare void @_ZNSt8ios_base4InitC1Ev(%"class.std::ios_base::Init"* nonnull align 1 dereferenceable(1)) unnamed_addr #0

; Function Attrs: nounwind
declare void @_ZNSt8ios_base4InitD1Ev(%"class.std::ios_base::Init"* nonnull align 1 dereferenceable(1)) unnamed_addr #1

; Function Attrs: nofree nounwind
declare i32 @__cxa_atexit(void (i8*)*, i8*, i8*) local_unnamed_addr #2

; Function Attrs: mustprogress norecurse sspstrong uwtable
define dso_local i32 @main() local_unnamed_addr #3 {
  %1 = alloca [101 x i8], align 16
  %2 = getelementptr inbounds [101 x i8], [101 x i8]* %1, i64 0, i64 0
  call void @llvm.lifetime.start.p0i8(i64 101, i8* nonnull %2) #8
  %3 = load i8*, i8** bitcast (%"class.std::basic_istream"* @_ZSt3cin to i8**), align 8, !tbaa !5
  %4 = getelementptr i8, i8* %3, i64 -24
  %5 = bitcast i8* %4 to i64*
  %6 = load i64, i64* %5, align 8
  %7 = add nsw i64 %6, 240
  %8 = getelementptr inbounds i8, i8* bitcast (%"class.std::basic_istream"* @_ZSt3cin to i8*), i64 %7
  %9 = bitcast i8* %8 to %"class.std::ctype"**
  %10 = load %"class.std::ctype"*, %"class.std::ctype"** %9, align 8, !tbaa !8
  %11 = icmp eq %"class.std::ctype"* %10, null
  br i1 %11, label %12, label %13

12:                                               ; preds = %0
  tail call void @_ZSt16__throw_bad_castv() #9
  unreachable

13:                                               ; preds = %0
  %14 = getelementptr inbounds %"class.std::ctype", %"class.std::ctype"* %10, i64 0, i32 8
  %15 = load i8, i8* %14, align 8, !tbaa !13
  %16 = icmp eq i8 %15, 0
  br i1 %16, label %20, label %17

17:                                               ; preds = %13
  %18 = getelementptr inbounds %"class.std::ctype", %"class.std::ctype"* %10, i64 0, i32 9, i64 10
  %19 = load i8, i8* %18, align 1, !tbaa !15
  br label %26

20:                                               ; preds = %13
  tail call void @_ZNKSt5ctypeIcE13_M_widen_initEv(%"class.std::ctype"* nonnull align 8 dereferenceable(570) %10)
  %21 = bitcast %"class.std::ctype"* %10 to i8 (%"class.std::ctype"*, i8)***
  %22 = load i8 (%"class.std::ctype"*, i8)**, i8 (%"class.std::ctype"*, i8)*** %21, align 8, !tbaa !5
  %23 = getelementptr inbounds i8 (%"class.std::ctype"*, i8)*, i8 (%"class.std::ctype"*, i8)** %22, i64 6
  %24 = load i8 (%"class.std::ctype"*, i8)*, i8 (%"class.std::ctype"*, i8)** %23, align 8
  %25 = tail call signext i8 %24(%"class.std::ctype"* nonnull align 8 dereferenceable(570) %10, i8 signext 10)
  br label %26

26:                                               ; preds = %17, %20
  %27 = phi i8 [ %19, %17 ], [ %25, %20 ]
  %28 = call nonnull align 8 dereferenceable(16) %"class.std::basic_istream"* @_ZNSi7getlineEPclc(%"class.std::basic_istream"* nonnull align 8 dereferenceable(16) @_ZSt3cin, i8* nonnull %2, i64 102, i8 signext %27)
  %29 = call i64 @strlen(i8* noundef nonnull %2) #10
  %30 = shl i64 %29, 32
  %31 = ashr exact i64 %30, 32
  %32 = getelementptr inbounds [101 x i8], [101 x i8]* %1, i64 0, i64 %31
  %33 = icmp sgt i64 %30, 0
  br i1 %33, label %37, label %55

34:                                               ; preds = %50
  %35 = getelementptr inbounds i8, i8* %38, i64 1
  %36 = icmp ult i8* %52, %32
  br i1 %36, label %44, label %55

37:                                               ; preds = %26, %44
  %38 = phi i8* [ %45, %44 ], [ %2, %26 ]
  %39 = phi i8* [ %46, %44 ], [ %2, %26 ]
  %40 = load i8, i8* %39, align 1, !tbaa !15
  switch i8 %40, label %41 [
    i8 32, label %47
    i8 0, label %47
  ]

41:                                               ; preds = %37
  %42 = getelementptr inbounds i8, i8* %39, i64 1
  %43 = getelementptr inbounds i8, i8* %38, i64 1
  store i8 %40, i8* %38, align 1, !tbaa !15
  br label %44

44:                                               ; preds = %41, %34
  %45 = phi i8* [ %43, %41 ], [ %35, %34 ]
  %46 = phi i8* [ %42, %41 ], [ %52, %34 ]
  br label %37, !llvm.loop !16

47:                                               ; preds = %37, %37
  %48 = icmp eq i8* %39, %32
  br i1 %48, label %55, label %49

49:                                               ; preds = %47
  store i8 %40, i8* %38, align 1, !tbaa !15
  br label %50

50:                                               ; preds = %50, %49
  %51 = phi i8* [ %39, %49 ], [ %52, %50 ]
  %52 = getelementptr inbounds i8, i8* %51, i64 1
  %53 = load i8, i8* %52, align 1, !tbaa !15
  %54 = icmp eq i8 %53, 32
  br i1 %54, label %50, label %34

55:                                               ; preds = %34, %47, %26
  %56 = phi i8* [ %2, %26 ], [ %38, %47 ], [ %35, %34 ]
  store i8 0, i8* %56, align 1, !tbaa !15
  %57 = call i64 @strlen(i8* noundef nonnull dereferenceable(1) %2) #8
  %58 = call nonnull align 8 dereferenceable(8) %"class.std::basic_ostream"* @_ZSt16__ostream_insertIcSt11char_traitsIcEERSt13basic_ostreamIT_T0_ES6_PKS3_l(%"class.std::basic_ostream"* nonnull align 8 dereferenceable(8) @_ZSt4cout, i8* nonnull %2, i64 %57)
  %59 = load i8*, i8** bitcast (%"class.std::basic_ostream"* @_ZSt4cout to i8**), align 8, !tbaa !5
  %60 = getelementptr i8, i8* %59, i64 -24
  %61 = bitcast i8* %60 to i64*
  %62 = load i64, i64* %61, align 8
  %63 = add nsw i64 %62, 240
  %64 = getelementptr inbounds i8, i8* bitcast (%"class.std::basic_ostream"* @_ZSt4cout to i8*), i64 %63
  %65 = bitcast i8* %64 to %"class.std::ctype"**
  %66 = load %"class.std::ctype"*, %"class.std::ctype"** %65, align 8, !tbaa !8
  %67 = icmp eq %"class.std::ctype"* %66, null
  br i1 %67, label %68, label %69

68:                                               ; preds = %55
  call void @_ZSt16__throw_bad_castv() #9
  unreachable

69:                                               ; preds = %55
  %70 = getelementptr inbounds %"class.std::ctype", %"class.std::ctype"* %66, i64 0, i32 8
  %71 = load i8, i8* %70, align 8, !tbaa !13
  %72 = icmp eq i8 %71, 0
  br i1 %72, label %76, label %73

73:                                               ; preds = %69
  %74 = getelementptr inbounds %"class.std::ctype", %"class.std::ctype"* %66, i64 0, i32 9, i64 10
  %75 = load i8, i8* %74, align 1, !tbaa !15
  br label %82

76:                                               ; preds = %69
  call void @_ZNKSt5ctypeIcE13_M_widen_initEv(%"class.std::ctype"* nonnull align 8 dereferenceable(570) %66)
  %77 = bitcast %"class.std::ctype"* %66 to i8 (%"class.std::ctype"*, i8)***
  %78 = load i8 (%"class.std::ctype"*, i8)**, i8 (%"class.std::ctype"*, i8)*** %77, align 8, !tbaa !5
  %79 = getelementptr inbounds i8 (%"class.std::ctype"*, i8)*, i8 (%"class.std::ctype"*, i8)** %78, i64 6
  %80 = load i8 (%"class.std::ctype"*, i8)*, i8 (%"class.std::ctype"*, i8)** %79, align 8
  %81 = call signext i8 %80(%"class.std::ctype"* nonnull align 8 dereferenceable(570) %66, i8 signext 10)
  br label %82

82:                                               ; preds = %73, %76
  %83 = phi i8 [ %75, %73 ], [ %81, %76 ]
  %84 = call nonnull align 8 dereferenceable(8) %"class.std::basic_ostream"* @_ZNSo3putEc(%"class.std::basic_ostream"* nonnull align 8 dereferenceable(8) @_ZSt4cout, i8 signext %83)
  %85 = call nonnull align 8 dereferenceable(8) %"class.std::basic_ostream"* @_ZNSo5flushEv(%"class.std::basic_ostream"* nonnull align 8 dereferenceable(8) %84)
  call void @llvm.lifetime.end.p0i8(i64 101, i8* nonnull %2) #8
  ret i32 0
}

; Function Attrs: argmemonly mustprogress nofree nosync nounwind willreturn
declare void @llvm.lifetime.start.p0i8(i64 immarg, i8* nocapture) #4

; Function Attrs: argmemonly mustprogress nofree nounwind readonly willreturn
declare i64 @strlen(i8* nocapture) local_unnamed_addr #5

; Function Attrs: argmemonly mustprogress nofree nosync nounwind willreturn
declare void @llvm.lifetime.end.p0i8(i64 immarg, i8* nocapture) #4

declare nonnull align 8 dereferenceable(16) %"class.std::basic_istream"* @_ZNSi7getlineEPclc(%"class.std::basic_istream"* nonnull align 8 dereferenceable(16), i8*, i64, i8 signext) local_unnamed_addr #0

; Function Attrs: noreturn
declare void @_ZSt16__throw_bad_castv() local_unnamed_addr #6

declare void @_ZNKSt5ctypeIcE13_M_widen_initEv(%"class.std::ctype"* nonnull align 8 dereferenceable(570)) local_unnamed_addr #0

declare nonnull align 8 dereferenceable(8) %"class.std::basic_ostream"* @_ZSt16__ostream_insertIcSt11char_traitsIcEERSt13basic_ostreamIT_T0_ES6_PKS3_l(%"class.std::basic_ostream"* nonnull align 8 dereferenceable(8), i8*, i64) local_unnamed_addr #0

declare nonnull align 8 dereferenceable(8) %"class.std::basic_ostream"* @_ZNSo3putEc(%"class.std::basic_ostream"* nonnull align 8 dereferenceable(8), i8 signext) local_unnamed_addr #0

declare nonnull align 8 dereferenceable(8) %"class.std::basic_ostream"* @_ZNSo5flushEv(%"class.std::basic_ostream"* nonnull align 8 dereferenceable(8)) local_unnamed_addr #0

; Function Attrs: sspstrong uwtable
define internal void @_GLOBAL__sub_I_153.cpp() #7 section ".text.startup" {
  tail call void @_ZNSt8ios_base4InitC1Ev(%"class.std::ios_base::Init"* nonnull align 1 dereferenceable(1) @_ZStL8__ioinit)
  %1 = tail call i32 @__cxa_atexit(void (i8*)* bitcast (void (%"class.std::ios_base::Init"*)* @_ZNSt8ios_base4InitD1Ev to void (i8*)*), i8* getelementptr inbounds (%"class.std::ios_base::Init", %"class.std::ios_base::Init"* @_ZStL8__ioinit, i64 0, i32 0), i8* nonnull @__dso_handle) #8
  ret void
}


!llvm.module.flags = !{!0, !1, !2, !3}
!llvm.ident = !{!4}

!0 = !{i32 1, !"wchar_size", i32 4}
!1 = !{i32 7, !"PIC Level", i32 2}
!2 = !{i32 7, !"PIE Level", i32 2}
!3 = !{i32 7, !"uwtable", i32 1}
!4 = !{!"clang version 13.0.0"}
!5 = !{!6, !6, i64 0}
!6 = !{!"vtable pointer", !7, i64 0}
!7 = !{!"Simple C++ TBAA"}
!8 = !{!9, !10, i64 240}
!9 = !{!"_ZTSSt9basic_iosIcSt11char_traitsIcEE", !10, i64 216, !11, i64 224, !12, i64 225, !10, i64 232, !10, i64 240, !10, i64 248, !10, i64 256}
!10 = !{!"any pointer", !11, i64 0}
!11 = !{!"omnipotent char", !7, i64 0}
!12 = !{!"bool", !11, i64 0}
!13 = !{!14, !11, i64 56}
!14 = !{!"_ZTSSt5ctypeIcE", !10, i64 16, !12, i64 24, !10, i64 32, !10, i64 40, !10, i64 48, !11, i64 56, !11, i64 57, !11, i64 313, !11, i64 569}
!15 = !{!11, !11, i64 0}
!16 = distinct !{!16, !17}
!17 = !{!"llvm.loop.mustprogress"}
